target datalayout = "e-m:e-p270:32:32-p271:32:32-p272:64:64-i64:64-i128:128-f80:128-n8:16:32:64-S128"
target triple = "x86_64-pc-linux-gnu"

%struct.t_interaction_function = type { ptr, ptr, i32, i32, i32, i32 }

@interaction_function = external global [95 x %struct.t_interaction_function], align 16

; Function Attrs: inlinehint mustprogress nounwind uwtable
define internal noundef i32 @_ZL4NRALi(i32 noundef %0) #2 {
  %2 = alloca i32, align 4
  store i32 %0, ptr %2, align 4, !tbaa !4
  %3 = load i32, ptr %2, align 4, !tbaa !4
  %4 = sext i32 %3 to i64
  %5 = getelementptr inbounds [95 x %struct.t_interaction_function], ptr @interaction_function, i64 0, i64 %4
  %6 = getelementptr inbounds nuw %struct.t_interaction_function, ptr %5, i32 0, i32 2
  %7 = load i32, ptr %6, align 16, !tbaa !12
  ret i32 %7
}

; Function Attrs: mustprogress uwtable
define noundef i32 @_Z7nral_rti(i32 noundef %0) #0 {
  %2 = alloca i32, align 4
  %3 = alloca i32, align 4
  store i32 %0, ptr %2, align 4, !tbaa !4
  call void @llvm.lifetime.start.p0(i64 4, ptr %3) #14
  %4 = load i32, ptr %2, align 4, !tbaa !4
  %5 = call noundef i32 @_ZL4NRALi(i32 noundef %4)
  store i32 %5, ptr %3, align 4, !tbaa !4
  %6 = load i32, ptr %2, align 4, !tbaa !4
  %7 = sext i32 %6 to i64
  %8 = getelementptr inbounds [95 x %struct.t_interaction_function], ptr @interaction_function, i64 0, i64 %7
  %9 = getelementptr inbounds nuw %struct.t_interaction_function, ptr %8, i32 0, i32 5
  %10 = load i32, ptr %9, align 4, !tbaa !8
  %11 = and i32 %10, 2
  %12 = icmp ne i32 %11, 0
  br i1 %12, label %13, label %16

13:                                               ; preds = %1
  %14 = load i32, ptr %3, align 4, !tbaa !4
  %15 = add nsw i32 %14, 1
  store i32 %15, ptr %3, align 4, !tbaa !4
  br label %16

16:                                               ; preds = %13, %1
  %17 = load i32, ptr %3, align 4, !tbaa !4
  call void @llvm.lifetime.end.p0(i64 4, ptr %3) #14
  ret i32 %17
}