; Function Attrs: mustprogress nofree norecurse nosync nounwind willreturn memory(read, argmem: none, inaccessiblemem: none) uwtable
define noundef i32 @_Z7nral_rti(i32 noundef %0) local_unnamed_addr #0 {
  %2 = sext i32 %0 to i64
  %3 = getelementptr inbounds [95 x %struct.t_interaction_function], ptr @interaction_function, i64 0, i64 %2, i32 2
  %4 = load i32, ptr %3, align 16, !tbaa !4
  %5 = getelementptr inbounds [95 x %struct.t_interaction_function], ptr @interaction_function, i64 0, i64 %2, i32 5
  %6 = load i32, ptr %5, align 4, !tbaa !11
  %7 = lshr i32 %6, 1
  %8 = and i32 %7, 1
  %spec.select = add nsw i32 %8, %4
  ret i32 %spec.select
}